target datalayout = "e-m:e-p270:32:32-p271:32:32-p272:64:64-i64:64-i128:128-f80:128-n8:16:32:64-S128"
target triple = "x86_64-pc-linux-gnu"

%struct.AVFilterLink = type { ptr, ptr, ptr, ptr, i32, i32, i32, i32, %struct.AVRational, i32, i32, i32, %struct.AVChannelLayout, %struct.AVRational, ptr, i32, %struct.AVFilterFormatsConfig, %struct.AVFilterFormatsConfig }
%struct.AVChannelLayout = type { i32, i32, %union.anon.1, ptr }
%union.anon.1 = type { i64 }
%struct.AVRational = type { i32, i32 }
%struct.AVFilterFormatsConfig = type { ptr, ptr, ptr, ptr, ptr }
%struct.AVFilterContext = type { ptr, ptr, ptr, ptr, ptr, i32, ptr, ptr, i32, ptr, ptr, i32, i32, ptr, ptr, ptr, ptr, i32, ptr, i32, i32 }
%struct.NContext = type { ptr, [4 x i32], [4 x i32], i32, [4 x i32], i32, i32, i32, i32, ptr }
%struct.AVPixFmtDescriptor = type { ptr, i8, i8, i8, i64, [4 x %struct.AVComponentDescriptor], ptr }
%struct.AVComponentDescriptor = type { i32, i32, i32, i32, i32 }
%struct.AVFilter = type { ptr, ptr, ptr, ptr, ptr, i32 }

@.str = private unnamed_addr constant [8 x i8] c"erosion\00", align 1
@.str.2 = private unnamed_addr constant [9 x i8] c"dilation\00", align 1
@.str.4 = private unnamed_addr constant [8 x i8] c"deflate\00", align 1
@.str.6 = private unnamed_addr constant [8 x i8] c"inflate\00", align 1

; Function Attrs: nounwind uwtable
define internal i32 @config_input(ptr noundef %0) #1 {
  %2 = alloca ptr, align 8
  %3 = alloca ptr, align 8
  %4 = alloca ptr, align 8
  %5 = alloca ptr, align 8
  store ptr %0, ptr %2, align 8, !tbaa !4
  call void @llvm.lifetime.start.p0(i64 8, ptr %3) #5
  %6 = load ptr, ptr %2, align 8, !tbaa !4
  %7 = getelementptr inbounds nuw %struct.AVFilterLink, ptr %6, i32 0, i32 2
  %8 = load ptr, ptr %7, align 8, !tbaa !11
  store ptr %8, ptr %3, align 8, !tbaa !23
  call void @llvm.lifetime.start.p0(i64 8, ptr %4) #5
  %9 = load ptr, ptr %3, align 8, !tbaa !23
  %10 = getelementptr inbounds nuw %struct.AVFilterContext, ptr %9, i32 0, i32 9
  %11 = load ptr, ptr %10, align 8, !tbaa !34
  store ptr %11, ptr %4, align 8, !tbaa !35
  call void @llvm.lifetime.start.p0(i64 8, ptr %5) #5
  %12 = load ptr, ptr %2, align 8, !tbaa !4
  %13 = getelementptr inbounds nuw %struct.AVFilterLink, ptr %12, i32 0, i32 5
  %14 = load i32, ptr %13, align 4, !tbaa !43
  %15 = call ptr @av_pix_fmt_desc_get(i32 noundef %14)
  store ptr %15, ptr %5, align 8, !tbaa !44
  %16 = load ptr, ptr %5, align 8, !tbaa !44
  %17 = getelementptr inbounds nuw %struct.AVPixFmtDescriptor, ptr %16, i32 0, i32 5
  %18 = getelementptr inbounds [4 x %struct.AVComponentDescriptor], ptr %17, i64 0, i64 0
  %19 = getelementptr inbounds nuw %struct.AVComponentDescriptor, ptr %18, i32 0, i32 4
  %20 = load i32, ptr %19, align 8, !tbaa !46
  %21 = load ptr, ptr %4, align 8, !tbaa !35
  %22 = getelementptr inbounds nuw %struct.NContext, ptr %21, i32 0, i32 6
  store i32 %20, ptr %22, align 8, !tbaa !48
  %23 = load ptr, ptr %4, align 8, !tbaa !35
  %24 = getelementptr inbounds nuw %struct.NContext, ptr %23, i32 0, i32 6
  %25 = load i32, ptr %24, align 8, !tbaa !48
  %26 = shl i32 1, %25
  %27 = sub nsw i32 %26, 1
  %28 = load ptr, ptr %4, align 8, !tbaa !35
  %29 = getelementptr inbounds nuw %struct.NContext, ptr %28, i32 0, i32 7
  store i32 %27, ptr %29, align 4, !tbaa !50
  %30 = load ptr, ptr %4, align 8, !tbaa !35
  %31 = getelementptr inbounds nuw %struct.NContext, ptr %30, i32 0, i32 6
  %32 = load i32, ptr %31, align 8, !tbaa !48
  %33 = add nsw i32 %32, 7
  %34 = sdiv i32 %33, 8
  %35 = load ptr, ptr %4, align 8, !tbaa !35
  %36 = getelementptr inbounds nuw %struct.NContext, ptr %35, i32 0, i32 8
  store i32 %34, ptr %36, align 8, !tbaa !51
  %37 = load ptr, ptr %5, align 8, !tbaa !44
  %38 = getelementptr inbounds nuw %struct.AVPixFmtDescriptor, ptr %37, i32 0, i32 2
  %39 = load i8, ptr %38, align 1, !tbaa !52
  %40 = call i1 @llvm.is.constant.i8(i8 %39)
  br i1 %40, label %52, label %41

41:                                               ; preds = %1
  %42 = load ptr, ptr %2, align 8, !tbaa !4
  %43 = getelementptr inbounds nuw %struct.AVFilterLink, ptr %42, i32 0, i32 6
  %44 = load i32, ptr %43, align 8, !tbaa !37
  %45 = sub nsw i32 0, %44
  %46 = load ptr, ptr %5, align 8, !tbaa !44
  %47 = getelementptr inbounds nuw %struct.AVPixFmtDescriptor, ptr %46, i32 0, i32 2
  %48 = load i8, ptr %47, align 1, !tbaa !52
  %49 = zext i8 %48 to i32
  %50 = ashr i32 %45, %49
  %51 = sub nsw i32 0, %50
  br label %68

52:                                               ; preds = %1
  %53 = load ptr, ptr %2, align 8, !tbaa !4
  %54 = getelementptr inbounds nuw %struct.AVFilterLink, ptr %53, i32 0, i32 6
  %55 = load i32, ptr %54, align 8, !tbaa !37
  %56 = load ptr, ptr %5, align 8, !tbaa !44
  %57 = getelementptr inbounds nuw %struct.AVPixFmtDescriptor, ptr %56, i32 0, i32 2
  %58 = load i8, ptr %57, align 1, !tbaa !52
  %59 = zext i8 %58 to i32
  %60 = shl i32 1, %59
  %61 = add nsw i32 %55, %60
  %62 = sub nsw i32 %61, 1
  %63 = load ptr, ptr %5, align 8, !tbaa !44
  %64 = getelementptr inbounds nuw %struct.AVPixFmtDescriptor, ptr %63, i32 0, i32 2
  %65 = load i8, ptr %64, align 1, !tbaa !52
  %66 = zext i8 %65 to i32
  %67 = ashr i32 %62, %66
  br label %68

68:                                               ; preds = %52, %41
  %69 = phi i32 [ %51, %41 ], [ %67, %52 ]
  %70 = load ptr, ptr %4, align 8, !tbaa !35
  %71 = getelementptr inbounds nuw %struct.NContext, ptr %70, i32 0, i32 2
  %72 = getelementptr inbounds [4 x i32], ptr %71, i64 0, i64 2
  store i32 %69, ptr %72, align 8, !tbaa !42
  %73 = load ptr, ptr %4, align 8, !tbaa !35
  %74 = getelementptr inbounds nuw %struct.NContext, ptr %73, i32 0, i32 2
  %75 = getelementptr inbounds [4 x i32], ptr %74, i64 0, i64 1
  store i32 %69, ptr %75, align 4, !tbaa !42
  %76 = load ptr, ptr %2, align 8, !tbaa !4
  %77 = getelementptr inbounds nuw %struct.AVFilterLink, ptr %76, i32 0, i32 6
  %78 = load i32, ptr %77, align 8, !tbaa !37
  %79 = load ptr, ptr %4, align 8, !tbaa !35
  %80 = getelementptr inbounds nuw %struct.NContext, ptr %79, i32 0, i32 2
  %81 = getelementptr inbounds [4 x i32], ptr %80, i64 0, i64 3
  store i32 %78, ptr %81, align 4, !tbaa !42
  %82 = load ptr, ptr %4, align 8, !tbaa !35
  %83 = getelementptr inbounds nuw %struct.NContext, ptr %82, i32 0, i32 2
  %84 = getelementptr inbounds [4 x i32], ptr %83, i64 0, i64 0
  store i32 %78, ptr %84, align 8, !tbaa !42
  %85 = load ptr, ptr %5, align 8, !tbaa !44
  %86 = getelementptr inbounds nuw %struct.AVPixFmtDescriptor, ptr %85, i32 0, i32 3
  %87 = load i8, ptr %86, align 2, !tbaa !55
  %88 = call i1 @llvm.is.constant.i8(i8 %87)
  br i1 %88, label %100, label %89

89:                                               ; preds = %68
  %90 = load ptr, ptr %2, align 8, !tbaa !4
  %91 = getelementptr inbounds nuw %struct.AVFilterLink, ptr %90, i32 0, i32 7
  %92 = load i32, ptr %91, align 4, !tbaa !38
  %93 = sub nsw i32 0, %92
  %94 = load ptr, ptr %5, align 8, !tbaa !44
  %95 = getelementptr inbounds nuw %struct.AVPixFmtDescriptor, ptr %94, i32 0, i32 3
  %96 = load i8, ptr %95, align 2, !tbaa !55
  %97 = zext i8 %96 to i32
  %98 = ashr i32 %93, %97
  %99 = sub nsw i32 0, %98
  br label %116

100:                                              ; preds = %68
  %101 = load ptr, ptr %2, align 8, !tbaa !4
  %102 = getelementptr inbounds nuw %struct.AVFilterLink, ptr %101, i32 0, i32 7
  %103 = load i32, ptr %102, align 4, !tbaa !38
  %104 = load ptr, ptr %5, align 8, !tbaa !44
  %105 = getelementptr inbounds nuw %struct.AVPixFmtDescriptor, ptr %104, i32 0, i32 3
  %106 = load i8, ptr %105, align 2, !tbaa !55
  %107 = zext i8 %106 to i32
  %108 = shl i32 1, %107
  %109 = add nsw i32 %103, %108
  %110 = sub nsw i32 %109, 1
  %111 = load ptr, ptr %5, align 8, !tbaa !44
  %112 = getelementptr inbounds nuw %struct.AVPixFmtDescriptor, ptr %111, i32 0, i32 3
  %113 = load i8, ptr %112, align 2, !tbaa !55
  %114 = zext i8 %113 to i32
  %115 = ashr i32 %110, %114
  br label %116

116:                                              ; preds = %100, %89
  %117 = phi i32 [ %99, %89 ], [ %115, %100 ]
  %118 = load ptr, ptr %4, align 8, !tbaa !35
  %119 = getelementptr inbounds nuw %struct.NContext, ptr %118, i32 0, i32 1
  %120 = getelementptr inbounds [4 x i32], ptr %119, i64 0, i64 2
  store i32 %117, ptr %120, align 8, !tbaa !42
  %121 = load ptr, ptr %4, align 8, !tbaa !35
  %122 = getelementptr inbounds nuw %struct.NContext, ptr %121, i32 0, i32 1
  %123 = getelementptr inbounds [4 x i32], ptr %122, i64 0, i64 1
  store i32 %117, ptr %123, align 4, !tbaa !42
  %124 = load ptr, ptr %2, align 8, !tbaa !4
  %125 = getelementptr inbounds nuw %struct.AVFilterLink, ptr %124, i32 0, i32 7
  %126 = load i32, ptr %125, align 4, !tbaa !38
  %127 = load ptr, ptr %4, align 8, !tbaa !35
  %128 = getelementptr inbounds nuw %struct.NContext, ptr %127, i32 0, i32 1
  %129 = getelementptr inbounds [4 x i32], ptr %128, i64 0, i64 3
  store i32 %126, ptr %129, align 4, !tbaa !42
  %130 = load ptr, ptr %4, align 8, !tbaa !35
  %131 = getelementptr inbounds nuw %struct.NContext, ptr %130, i32 0, i32 1
  %132 = getelementptr inbounds [4 x i32], ptr %131, i64 0, i64 0
  store i32 %126, ptr %132, align 8, !tbaa !42
  %133 = load ptr, ptr %2, align 8, !tbaa !4
  %134 = getelementptr inbounds nuw %struct.AVFilterLink, ptr %133, i32 0, i32 5
  %135 = load i32, ptr %134, align 4, !tbaa !43
  %136 = call i32 @av_pix_fmt_count_planes(i32 noundef %135)
  %137 = load ptr, ptr %4, align 8, !tbaa !35
  %138 = getelementptr inbounds nuw %struct.NContext, ptr %137, i32 0, i32 3
  store i32 %136, ptr %138, align 8, !tbaa !56
  %139 = load ptr, ptr %3, align 8, !tbaa !23
  %140 = getelementptr inbounds nuw %struct.AVFilterContext, ptr %139, i32 0, i32 1
  %141 = load ptr, ptr %140, align 8, !tbaa !57
  %142 = getelementptr inbounds nuw %struct.AVFilter, ptr %141, i32 0, i32 0
  %143 = load ptr, ptr %142, align 8, !tbaa !58
  %144 = call i32 @strcmp(ptr noundef %143, ptr noundef @.str) #6
  %145 = icmp ne i32 %144, 0
  br i1 %145, label %154, label %146

146:                                              ; preds = %116
  %147 = load ptr, ptr %4, align 8, !tbaa !35
  %148 = getelementptr inbounds nuw %struct.NContext, ptr %147, i32 0, i32 6
  %149 = load i32, ptr %148, align 8, !tbaa !48
  %150 = icmp sgt i32 %149, 8
  %151 = select i1 %150, ptr @erosion16, ptr @erosion
  %152 = load ptr, ptr %4, align 8, !tbaa !35
  %153 = getelementptr inbounds nuw %struct.NContext, ptr %152, i32 0, i32 9
  store ptr %151, ptr %153, align 8, !tbaa !60
  br label %205

154:                                              ; preds = %116
  %155 = load ptr, ptr %3, align 8, !tbaa !23
  %156 = getelementptr inbounds nuw %struct.AVFilterContext, ptr %155, i32 0, i32 1
  %157 = load ptr, ptr %156, align 8, !tbaa !57
  %158 = getelementptr inbounds nuw %struct.AVFilter, ptr %157, i32 0, i32 0
  %159 = load ptr, ptr %158, align 8, !tbaa !58
  %160 = call i32 @strcmp(ptr noundef %159, ptr noundef @.str.2) #6
  %161 = icmp ne i32 %160, 0
  br i1 %161, label %170, label %162

162:                                              ; preds = %154
  %163 = load ptr, ptr %4, align 8, !tbaa !35
  %164 = getelementptr inbounds nuw %struct.NContext, ptr %163, i32 0, i32 6
  %165 = load i32, ptr %164, align 8, !tbaa !48
  %166 = icmp sgt i32 %165, 8
  %167 = select i1 %166, ptr @dilation16, ptr @dilation
  %168 = load ptr, ptr %4, align 8, !tbaa !35
  %169 = getelementptr inbounds nuw %struct.NContext, ptr %168, i32 0, i32 9
  store ptr %167, ptr %169, align 8, !tbaa !60
  br label %204

170:                                              ; preds = %154
  %171 = load ptr, ptr %3, align 8, !tbaa !23
  %172 = getelementptr inbounds nuw %struct.AVFilterContext, ptr %171, i32 0, i32 1
  %173 = load ptr, ptr %172, align 8, !tbaa !57
  %174 = getelementptr inbounds nuw %struct.AVFilter, ptr %173, i32 0, i32 0
  %175 = load ptr, ptr %174, align 8, !tbaa !58
  %176 = call i32 @strcmp(ptr noundef %175, ptr noundef @.str.4) #6
  %177 = icmp ne i32 %176, 0
  br i1 %177, label %186, label %178

178:                                              ; preds = %170
  %179 = load ptr, ptr %4, align 8, !tbaa !35
  %180 = getelementptr inbounds nuw %struct.NContext, ptr %179, i32 0, i32 6
  %181 = load i32, ptr %180, align 8, !tbaa !48
  %182 = icmp sgt i32 %181, 8
  %183 = select i1 %182, ptr @deflate16, ptr @deflate
  %184 = load ptr, ptr %4, align 8, !tbaa !35
  %185 = getelementptr inbounds nuw %struct.NContext, ptr %184, i32 0, i32 9
  store ptr %183, ptr %185, align 8, !tbaa !60
  br label %203

186:                                              ; preds = %170
  %187 = load ptr, ptr %3, align 8, !tbaa !23
  %188 = getelementptr inbounds nuw %struct.AVFilterContext, ptr %187, i32 0, i32 1
  %189 = load ptr, ptr %188, align 8, !tbaa !57
  %190 = getelementptr inbounds nuw %struct.AVFilter, ptr %189, i32 0, i32 0
  %191 = load ptr, ptr %190, align 8, !tbaa !58
  %192 = call i32 @strcmp(ptr noundef %191, ptr noundef @.str.6) #6
  %193 = icmp ne i32 %192, 0
  br i1 %193, label %202, label %194

194:                                              ; preds = %186
  %195 = load ptr, ptr %4, align 8, !tbaa !35
  %196 = getelementptr inbounds nuw %struct.NContext, ptr %195, i32 0, i32 6
  %197 = load i32, ptr %196, align 8, !tbaa !48
  %198 = icmp sgt i32 %197, 8
  %199 = select i1 %198, ptr @inflate16, ptr @inflate
  %200 = load ptr, ptr %4, align 8, !tbaa !35
  %201 = getelementptr inbounds nuw %struct.NContext, ptr %200, i32 0, i32 9
  store ptr %199, ptr %201, align 8, !tbaa !60
  br label %202

202:                                              ; preds = %194, %186
  br label %203

203:                                              ; preds = %202, %178
  br label %204

204:                                              ; preds = %203, %162
  br label %205

205:                                              ; preds = %204, %146
  call void @llvm.lifetime.end.p0(i64 8, ptr %5) #5
  call void @llvm.lifetime.end.p0(i64 8, ptr %4) #5
  call void @llvm.lifetime.end.p0(i64 8, ptr %3) #5
  ret i32 0
}