; Function Attrs: nounwind uwtable
define internal noundef i32 @config_input(ptr noundef readonly captures(none) %0) #1 {
  %2 = getelementptr inbounds nuw i8, ptr %0, i64 16
  %3 = load ptr, ptr %2, align 8, !tbaa !9
  %4 = getelementptr inbounds nuw i8, ptr %3, i64 72
  %5 = load ptr, ptr %4, align 8, !tbaa !33
  %6 = getelementptr inbounds nuw i8, ptr %0, i64 36
  %7 = load i32, ptr %6, align 4, !tbaa !40
  %8 = tail call ptr @av_pix_fmt_desc_get(i32 noundef %7) #7
  %9 = getelementptr inbounds nuw i8, ptr %8, i64 40
  %10 = load i32, ptr %9, align 8, !tbaa !41
  %11 = getelementptr inbounds nuw i8, ptr %5, i64 64
  store i32 %10, ptr %11, align 8, !tbaa !43
  %notmask = shl nsw i32 -1, %10
  %12 = xor i32 %notmask, -1
  %13 = getelementptr inbounds nuw i8, ptr %5, i64 68
  store i32 %12, ptr %13, align 4, !tbaa !45
  %14 = add nsw i32 %10, 7
  %15 = sdiv i32 %14, 8
  %16 = getelementptr inbounds nuw i8, ptr %5, i64 72
  store i32 %15, ptr %16, align 8, !tbaa !46
  %17 = getelementptr inbounds nuw i8, ptr %0, i64 40
  %18 = load i32, ptr %17, align 8, !tbaa !34
  %19 = sub nsw i32 0, %18
  %20 = getelementptr inbounds nuw i8, ptr %8, i64 9
  %21 = load i8, ptr %20, align 1, !tbaa !47
  %22 = zext nneg i8 %21 to i32
  %23 = ashr i32 %19, %22
  %24 = sub nsw i32 0, %23
  %25 = getelementptr inbounds nuw i8, ptr %5, i64 24
  %26 = getelementptr inbounds nuw i8, ptr %5, i64 32
  store i32 %24, ptr %26, align 8, !tbaa !39
  %27 = getelementptr inbounds nuw i8, ptr %5, i64 28
  store i32 %24, ptr %27, align 4, !tbaa !39
  %28 = getelementptr inbounds nuw i8, ptr %0, i64 40
  %29 = load i32, ptr %28, align 8, !tbaa !34
  %30 = getelementptr inbounds nuw i8, ptr %5, i64 36
  store i32 %29, ptr %30, align 4, !tbaa !39
  store i32 %29, ptr %25, align 8, !tbaa !39
  %31 = getelementptr inbounds nuw i8, ptr %0, i64 44
  %32 = load i32, ptr %31, align 4, !tbaa !35
  %33 = sub nsw i32 0, %32
  %34 = getelementptr inbounds nuw i8, ptr %8, i64 10
  %35 = load i8, ptr %34, align 2, !tbaa !50
  %36 = zext nneg i8 %35 to i32
  %37 = ashr i32 %33, %36
  %38 = sub nsw i32 0, %37
  %39 = getelementptr inbounds nuw i8, ptr %5, i64 8
  %40 = getelementptr inbounds nuw i8, ptr %5, i64 16
  store i32 %38, ptr %40, align 8, !tbaa !39
  %41 = getelementptr inbounds nuw i8, ptr %5, i64 12
  store i32 %38, ptr %41, align 4, !tbaa !39
  %42 = getelementptr inbounds nuw i8, ptr %0, i64 44
  %43 = load i32, ptr %42, align 4, !tbaa !35
  %44 = getelementptr inbounds nuw i8, ptr %5, i64 20
  store i32 %43, ptr %44, align 4, !tbaa !39
  store i32 %43, ptr %39, align 8, !tbaa !39
  %45 = load i32, ptr %6, align 4, !tbaa !40
  %46 = tail call i32 @av_pix_fmt_count_planes(i32 noundef %45) #7
  %47 = getelementptr inbounds nuw i8, ptr %5, i64 40
  store i32 %46, ptr %47, align 8, !tbaa !51
  %48 = getelementptr inbounds nuw i8, ptr %3, i64 8
  %49 = load ptr, ptr %48, align 8, !tbaa !52
  %50 = load ptr, ptr %49, align 8, !tbaa !53
  %51 = tail call i32 @strcmp(ptr noundef nonnull dereferenceable(1) %50, ptr noundef nonnull dereferenceable(8) @.str) #8
  %.not = icmp eq i32 %51, 0
  br i1 %.not, label %52, label %56

52:                                               ; preds = %1
  %53 = load i32, ptr %11, align 8, !tbaa !43
  %54 = icmp sgt i32 %53, 8
  %55 = select i1 %54, ptr @erosion16, ptr @erosion
  br label %.sink.split

56:                                               ; preds = %1
  %57 = tail call i32 @strcmp(ptr noundef nonnull dereferenceable(1) %50, ptr noundef nonnull dereferenceable(9) @.str.2) #8
  %.not45 = icmp eq i32 %57, 0
  br i1 %.not45, label %58, label %62

58:                                               ; preds = %56
  %59 = load i32, ptr %11, align 8, !tbaa !43
  %60 = icmp sgt i32 %59, 8
  %61 = select i1 %60, ptr @dilation16, ptr @dilation
  br label %.sink.split

62:                                               ; preds = %56
  %63 = tail call i32 @strcmp(ptr noundef nonnull dereferenceable(1) %50, ptr noundef nonnull dereferenceable(8) @.str.4) #8
  %.not46 = icmp eq i32 %63, 0
  br i1 %.not46, label %64, label %68

64:                                               ; preds = %62
  %65 = load i32, ptr %11, align 8, !tbaa !43
  %66 = icmp sgt i32 %65, 8
  %67 = select i1 %66, ptr @deflate16, ptr @deflate
  br label %.sink.split

68:                                               ; preds = %62
  %69 = tail call i32 @strcmp(ptr noundef nonnull dereferenceable(1) %50, ptr noundef nonnull dereferenceable(8) @.str.6) #8
  %.not47 = icmp eq i32 %69, 0
  br i1 %.not47, label %70, label %75

70:                                               ; preds = %68
  %71 = load i32, ptr %11, align 8, !tbaa !43
  %72 = icmp sgt i32 %71, 8
  %73 = select i1 %72, ptr @inflate16, ptr @inflate
  br label %.sink.split

.sink.split:                                      ; preds = %52, %64, %70, %58
  %.sink = phi ptr [ %61, %58 ], [ %73, %70 ], [ %67, %64 ], [ %55, %52 ]
  %74 = getelementptr inbounds nuw i8, ptr %5, i64 80
  store ptr %.sink, ptr %74, align 8, !tbaa !55
  br label %75

75:                                               ; preds = %.sink.split, %68
  ret i32 0
}